target datalayout = "e-m:e-p270:32:32-p271:32:32-p272:64:64-i64:64-i128:128-f80:128-n8:16:32:64-S128"
target triple = "x86_64-pc-linux-gnu"

%class.OopMapBlocksBuilder = type { ptr, i32, i32 }
%class.OopMapBlock = type { i32, i32 }

; Function Attrs: mustprogress nounwind uwtable
define hidden noundef ptr @_ZNK19OopMapBlocksBuilder12last_oop_mapEv(ptr noundef nonnull align 8 dereferenceable(16) %0) #1 align 2 {
  %2 = alloca ptr, align 8
  store ptr %0, ptr %2, align 8
  %3 = load ptr, ptr %2, align 8
  %4 = getelementptr inbounds %class.OopMapBlocksBuilder, ptr %3, i32 0, i32 0
  %5 = load ptr, ptr %4, align 8
  %6 = getelementptr inbounds %class.OopMapBlocksBuilder, ptr %3, i32 0, i32 1
  %7 = load i32, ptr %6, align 8
  %8 = sub i32 %7, 1
  %9 = zext i32 %8 to i64
  %10 = getelementptr inbounds %class.OopMapBlock, ptr %5, i64 %9
  ret ptr %10
}