; Function Attrs: mustprogress nofree norecurse nosync nounwind willreturn memory(argmem: read) uwtable
define hidden noundef ptr @_ZNK19OopMapBlocksBuilder12last_oop_mapEv(ptr nocapture noundef nonnull readonly align 8 dereferenceable(16) %0) local_unnamed_addr #10 align 2 {
  %2 = load ptr, ptr %0, align 8
  %3 = getelementptr inbounds i8, ptr %0, i64 8
  %4 = load i32, ptr %3, align 8
  %5 = add i32 %4, -1
  %6 = zext i32 %5 to i64
  %7 = getelementptr inbounds %class.OopMapBlock, ptr %2, i64 %6
  ret ptr %7
}